; Function Attrs: mustprogress nounwind uwtable
define dso_local void @_ZNK4llvm6object26LoaderSectionSymbolEntry3213getSymbolNameEPKNS0_21LoaderSectionHeader32E(ptr dead_on_unwind noalias writable sret(%"class.llvm::Expected.48") align 8 %0, ptr noundef nonnull align 1 dereferenceable(24) %1, ptr noundef %2) local_unnamed_addr #0 align 2 {
  call void @llvm.assume(i1 true) [ "align"(ptr %1, i64 1) ]
  %.0.copyload.i.i.i = load i32, ptr %1, align 1
  %.not = icmp eq i32 %.0.copyload.i.i.i, 0
  br i1 %.not, label %12, label %4

4:                                                ; preds = %3
  %5 = tail call noundef ptr @memchr(ptr noundef nonnull dereferenceable(1) %1, i32 noundef 0, i64 noundef 8) #25
  %.not.i = icmp eq ptr %5, null
  %6 = ptrtoint ptr %5 to i64
  %7 = ptrtoint ptr %1 to i64
  %8 = sub i64 %6, %7
  %.sroa.3.0.i = select i1 %.not.i, i64 8, i64 %8
  %9 = getelementptr inbounds nuw i8, ptr %0, i64 16
  %10 = load i8, ptr %9, align 8
  %11 = and i8 %10, -2
  store i8 %11, ptr %9, align 8
  store ptr %1, ptr %0, align 8
  %.sroa.2.0..sroa_idx = getelementptr inbounds i8, ptr %0, i64 8
  store i64 %.sroa.3.0.i, ptr %.sroa.2.0..sroa_idx, align 8
  br label %16

12:                                               ; preds = %3
  %13 = getelementptr inbounds nuw i8, ptr %1, i64 4
  call void @llvm.assume(i1 true) [ "align"(ptr %13, i64 1) ]
  %.0.copyload.i.i.i4 = load i32, ptr %13, align 1
  %14 = tail call noundef i32 @llvm.bswap.i32(i32 %.0.copyload.i.i.i4)
  %15 = zext i32 %14 to i64
  tail call void @_ZN4llvm6object27getLoaderSecSymNameInStrTblINS0_21LoaderSectionHeader32EEENS_8ExpectedINS_9StringRefEEEPKT_m(ptr dead_on_unwind writable sret(%"class.llvm::Expected.48") align 8 %0, ptr noundef %2, i64 noundef %15)
  br label %16

16:                                               ; preds = %12, %4
  ret void
}